target datalayout = "e-m:e-p270:32:32-p271:32:32-p272:64:64-i64:64-i128:128-f80:128-n8:16:32:64-S128"
target triple = "x86_64-pc-linux-gnu"

%struct._address = type { i32, i32, ptr, ptr }
%struct._packet_info = type { ptr, ptr, i32, i32, %struct.nstime_t, %struct.nstime_t, %struct.nstime_t, i8, ptr, ptr, ptr, ptr, %struct._address, %struct._address, %struct._address, %struct._address, %struct._address, %struct._address, i32, ptr, i8, [3 x i8], %struct.anon.1, i32, i32, i32, i32, ptr, i8, ptr, ptr, i16, i16, i32, i32, i16, i32, i32, ptr, ptr, ptr, i8, i8, i16, i16, i16, i32, i16, i16, ptr, ptr, ptr, ptr, ptr, i32, i32 }
%struct.nstime_t = type { i64, i32 }
%struct.anon.1 = type { i8, [3 x i8] }

@lbtrm_mc_address_low_host = internal global i32 0, align 4
@lbtrm_mc_address_high_host = internal global i32 0, align 4
@mim_incoming_mc_address_host = internal global i32 0, align 4
@mim_outgoing_mc_address_host = internal global i32 0, align 4
@lbtrm_use_tag = internal global i8 0, align 1
@lbtrm_dest_port_low = internal global i32 14400, align 4
@lbtrm_dest_port_high = internal global i32 14400, align 4
@lbtrm_src_port_low = internal global i32 14390, align 4
@lbtrm_src_port_high = internal global i32 14399, align 4
@mim_incoming_dest_port = internal global i32 14401, align 4
@mim_outgoing_dest_port = internal global i32 14401, align 4

; Function Attrs: inlinehint nounwind null_pointer_is_valid sspstrong uwtable
define internal i32 @pntoh32(ptr noundef %0) #6 {
  %2 = alloca ptr, align 8
  store ptr %0, ptr %2, align 8
  %3 = load ptr, ptr %2, align 8
  %4 = getelementptr i8, ptr %3, i64 0
  %5 = load i8, ptr %4, align 1
  %6 = zext i8 %5 to i32
  %7 = shl i32 %6, 24
  %8 = load ptr, ptr %2, align 8
  %9 = getelementptr i8, ptr %8, i64 1
  %10 = load i8, ptr %9, align 1
  %11 = zext i8 %10 to i32
  %12 = shl i32 %11, 16
  %13 = or i32 %7, %12
  %14 = load ptr, ptr %2, align 8
  %15 = getelementptr i8, ptr %14, i64 2
  %16 = load i8, ptr %15, align 1
  %17 = zext i8 %16 to i32
  %18 = shl i32 %17, 8
  %19 = or i32 %13, %18
  %20 = load ptr, ptr %2, align 8
  %21 = getelementptr i8, ptr %20, i64 3
  %22 = load i8, ptr %21, align 1
  %23 = zext i8 %22 to i32
  %24 = shl i32 %23, 0
  %25 = or i32 %19, %24
  ret i32 %25
}

; Function Attrs: null_pointer_is_valid sspstrong uwtable
define internal zeroext i1 @test_lbtrm_packet(ptr noundef %0, ptr noundef %1, ptr noundef %2, ptr noundef %3) #0 {
  %5 = alloca i1, align 1
  %6 = alloca ptr, align 8
  %7 = alloca ptr, align 8
  %8 = alloca ptr, align 8
  %9 = alloca ptr, align 8
  %10 = alloca i32, align 4
  %11 = alloca i8, align 1
  %12 = alloca i8, align 1
  %13 = alloca i8, align 1
  %14 = alloca i8, align 1
  %15 = alloca i8, align 1
  %16 = alloca i32, align 4
  store ptr %0, ptr %6, align 8
  store ptr %1, ptr %7, align 8
  store ptr %2, ptr %8, align 8
  store ptr %3, ptr %9, align 8
  call void @llvm.lifetime.start.p0(i64 4, ptr %10) #9
  call void @llvm.lifetime.start.p0(i64 1, ptr %11) #9
  store i8 0, ptr %11, align 1
  call void @llvm.lifetime.start.p0(i64 1, ptr %12) #9
  store i8 0, ptr %12, align 1
  call void @llvm.lifetime.start.p0(i64 1, ptr %13) #9
  store i8 0, ptr %13, align 1
  call void @llvm.lifetime.start.p0(i64 1, ptr %14) #9
  store i8 0, ptr %14, align 1
  call void @llvm.lifetime.start.p0(i64 1, ptr %15) #9
  store i8 0, ptr %15, align 1
  %17 = load ptr, ptr %7, align 8
  %18 = getelementptr inbounds nuw %struct._packet_info, ptr %17, i32 0, i32 23
  %19 = load i32, ptr %18, align 8
  %20 = icmp ne i32 %19, 3
  br i1 %20, label %21, label %22

21:                                               ; preds = %4
  store i1 false, ptr %5, align 1
  store i32 1, ptr %16, align 4
  br label %164

22:                                               ; preds = %4
  %23 = load ptr, ptr %7, align 8
  %24 = getelementptr inbounds nuw %struct._packet_info, ptr %23, i32 0, i32 17
  %25 = getelementptr inbounds nuw %struct._address, ptr %24, i32 0, i32 0
  %26 = load i32, ptr %25, align 8
  %27 = icmp ne i32 %26, 2
  br i1 %27, label %34, label %28

28:                                               ; preds = %22
  %29 = load ptr, ptr %7, align 8
  %30 = getelementptr inbounds nuw %struct._packet_info, ptr %29, i32 0, i32 17
  %31 = getelementptr inbounds nuw %struct._address, ptr %30, i32 0, i32 1
  %32 = load i32, ptr %31, align 4
  %33 = icmp ne i32 %32, 4
  br i1 %33, label %34, label %35

34:                                               ; preds = %28, %22
  store i1 false, ptr %5, align 1
  store i32 1, ptr %16, align 4
  br label %164

35:                                               ; preds = %28
  %36 = load ptr, ptr %6, align 8
  %37 = call i32 @tvb_reported_length_remaining(ptr noundef %36, i32 noundef 0)
  %38 = icmp slt i32 %37, 8
  br i1 %38, label %39, label %40

39:                                               ; preds = %35
  store i1 false, ptr %5, align 1
  store i32 1, ptr %16, align 4
  br label %164

40:                                               ; preds = %35
  %41 = load ptr, ptr %6, align 8
  %42 = call zeroext i8 @tvb_get_uint8(ptr noundef %41, i32 noundef 0)
  store i8 %42, ptr %12, align 1
  %43 = load i8, ptr %12, align 1
  %44 = zext i8 %43 to i32
  %45 = and i32 %44, 15
  %46 = trunc i32 %45 to i8
  store i8 %46, ptr %13, align 1
  %47 = load i8, ptr %13, align 1
  %48 = zext i8 %47 to i32
  switch i32 %48, label %50 [
    i32 0, label %49
    i32 2, label %49
    i32 3, label %49
    i32 4, label %49
  ]

49:                                               ; preds = %40, %40, %40, %40
  br label %51

50:                                               ; preds = %40
  store i1 false, ptr %5, align 1
  store i32 1, ptr %16, align 4
  br label %164

51:                                               ; preds = %49
  %52 = load i8, ptr %12, align 1
  %53 = zext i8 %52 to i32
  %54 = ashr i32 %53, 4
  %55 = trunc i32 %54 to i8
  store i8 %55, ptr %14, align 1
  %56 = load i8, ptr %14, align 1
  %57 = zext i8 %56 to i32
  %58 = icmp ne i32 %57, 0
  br i1 %58, label %59, label %60

59:                                               ; preds = %51
  store i1 false, ptr %5, align 1
  store i32 1, ptr %16, align 4
  br label %164

60:                                               ; preds = %51
  %61 = load ptr, ptr %6, align 8
  %62 = call zeroext i8 @tvb_get_uint8(ptr noundef %61, i32 noundef 1)
  store i8 %62, ptr %15, align 1
  %63 = load i8, ptr %15, align 1
  %64 = zext i8 %63 to i32
  %65 = icmp ne i32 %64, 0
  br i1 %65, label %66, label %67

66:                                               ; preds = %60
  store i1 false, ptr %5, align 1
  store i32 1, ptr %16, align 4
  br label %164

67:                                               ; preds = %60
  %68 = load i8, ptr @lbtrm_use_tag, align 1, !range !10, !noundef !11
  %69 = trunc i8 %68 to i1
  br i1 %69, label %70, label %76

70:                                               ; preds = %67
  %71 = load ptr, ptr %7, align 8
  %72 = call ptr @lbtrm_tag_find(ptr noundef %71)
  %73 = icmp ne ptr %72, null
  br i1 %73, label %74, label %75

74:                                               ; preds = %70
  store i8 1, ptr %11, align 1
  br label %75

75:                                               ; preds = %74, %70
  br label %154

76:                                               ; preds = %67
  %77 = load ptr, ptr %7, align 8
  %78 = getelementptr inbounds nuw %struct._packet_info, ptr %77, i32 0, i32 17
  %79 = getelementptr inbounds nuw %struct._address, ptr %78, i32 0, i32 2
  %80 = load ptr, ptr %79, align 8
  %81 = call i32 @pntoh32(ptr noundef %80)
  store i32 %81, ptr %10, align 4
  %82 = load i32, ptr %10, align 4
  %83 = and i32 %82, -268435456
  %84 = icmp eq i32 %83, -536870912
  br i1 %84, label %85, label %139

85:                                               ; preds = %76
  %86 = load i32, ptr %10, align 4
  %87 = load i32, ptr @lbtrm_mc_address_low_host, align 4
  %88 = icmp uge i32 %86, %87
  br i1 %88, label %89, label %107

89:                                               ; preds = %85
  %90 = load i32, ptr %10, align 4
  %91 = load i32, ptr @lbtrm_mc_address_high_host, align 4
  %92 = icmp ule i32 %90, %91
  br i1 %92, label %93, label %107

93:                                               ; preds = %89
  %94 = load ptr, ptr %7, align 8
  %95 = getelementptr inbounds nuw %struct._packet_info, ptr %94, i32 0, i32 25
  %96 = load i32, ptr %95, align 8
  %97 = load i32, ptr @lbtrm_dest_port_low, align 4
  %98 = icmp uge i32 %96, %97
  br i1 %98, label %99, label %106

99:                                               ; preds = %93
  %100 = load ptr, ptr %7, align 8
  %101 = getelementptr inbounds nuw %struct._packet_info, ptr %100, i32 0, i32 25
  %102 = load i32, ptr %101, align 8
  %103 = load i32, ptr @lbtrm_dest_port_high, align 4
  %104 = icmp ule i32 %102, %103
  br i1 %104, label %105, label %106

105:                                              ; preds = %99
  store i8 1, ptr %11, align 1
  br label %106

106:                                              ; preds = %105, %99, %93
  br label %138

107:                                              ; preds = %89, %85
  %108 = load i32, ptr %10, align 4
  %109 = load i32, ptr @mim_incoming_mc_address_host, align 4
  %110 = icmp eq i32 %108, %109
  br i1 %110, label %115, label %111

111:                                              ; preds = %107
  %112 = load i32, ptr %10, align 4
  %113 = load i32, ptr @mim_outgoing_mc_address_host, align 4
  %114 = icmp eq i32 %112, %113
  br i1 %114, label %115, label %137

115:                                              ; preds = %111, %107
  %116 = load i32, ptr %10, align 4
  %117 = load i32, ptr @mim_incoming_mc_address_host, align 4
  %118 = icmp eq i32 %116, %117
  br i1 %118, label %119, label %125

119:                                              ; preds = %115
  %120 = load ptr, ptr %7, align 8
  %121 = getelementptr inbounds nuw %struct._packet_info, ptr %120, i32 0, i32 25
  %122 = load i32, ptr %121, align 8
  %123 = load i32, ptr @mim_incoming_dest_port, align 4
  %124 = icmp eq i32 %122, %123
  br i1 %124, label %135, label %125

125:                                              ; preds = %119, %115
  %126 = load i32, ptr %10, align 4
  %127 = load i32, ptr @mim_outgoing_mc_address_host, align 4
  %128 = icmp eq i32 %126, %127
  br i1 %128, label %129, label %136

129:                                              ; preds = %125
  %130 = load ptr, ptr %7, align 8
  %131 = getelementptr inbounds nuw %struct._packet_info, ptr %130, i32 0, i32 25
  %132 = load i32, ptr %131, align 8
  %133 = load i32, ptr @mim_outgoing_dest_port, align 4
  %134 = icmp eq i32 %132, %133
  br i1 %134, label %135, label %136

135:                                              ; preds = %129, %119
  store i8 1, ptr %11, align 1
  br label %136

136:                                              ; preds = %135, %129, %125
  br label %137

137:                                              ; preds = %136, %111
  br label %138

138:                                              ; preds = %137, %106
  br label %153

139:                                              ; preds = %76
  %140 = load ptr, ptr %7, align 8
  %141 = getelementptr inbounds nuw %struct._packet_info, ptr %140, i32 0, i32 25
  %142 = load i32, ptr %141, align 8
  %143 = load i32, ptr @lbtrm_src_port_low, align 4
  %144 = icmp uge i32 %142, %143
  br i1 %144, label %145, label %152

145:                                              ; preds = %139
  %146 = load ptr, ptr %7, align 8
  %147 = getelementptr inbounds nuw %struct._packet_info, ptr %146, i32 0, i32 25
  %148 = load i32, ptr %147, align 8
  %149 = load i32, ptr @lbtrm_src_port_high, align 4
  %150 = icmp ule i32 %148, %149
  br i1 %150, label %151, label %152

151:                                              ; preds = %145
  store i8 1, ptr %11, align 1
  br label %152

152:                                              ; preds = %151, %145, %139
  br label %153

153:                                              ; preds = %152, %138
  br label %154

154:                                              ; preds = %153, %75
  %155 = load i8, ptr %11, align 1, !range !10, !noundef !11
  %156 = trunc i8 %155 to i1
  br i1 %156, label %157, label %163

157:                                              ; preds = %154
  %158 = load ptr, ptr %6, align 8
  %159 = load ptr, ptr %7, align 8
  %160 = load ptr, ptr %8, align 8
  %161 = load ptr, ptr %9, align 8
  %162 = call i32 @dissect_lbtrm(ptr noundef %158, ptr noundef %159, ptr noundef %160, ptr noundef %161)
  store i1 true, ptr %5, align 1
  store i32 1, ptr %16, align 4
  br label %164

163:                                              ; preds = %154
  store i1 false, ptr %5, align 1
  store i32 1, ptr %16, align 4
  br label %164

164:                                              ; preds = %163, %157, %66, %59, %50, %39, %34, %21
  call void @llvm.lifetime.end.p0(i64 1, ptr %15) #9
  call void @llvm.lifetime.end.p0(i64 1, ptr %14) #9
  call void @llvm.lifetime.end.p0(i64 1, ptr %13) #9
  call void @llvm.lifetime.end.p0(i64 1, ptr %12) #9
  call void @llvm.lifetime.end.p0(i64 1, ptr %11) #9
  call void @llvm.lifetime.end.p0(i64 4, ptr %10) #9
  %165 = load i1, ptr %5, align 1
  ret i1 %165
}