; Function Attrs: null_pointer_is_valid sspstrong uwtable
define internal noundef zeroext i1 @test_lbtrm_packet(ptr noundef %0, ptr noundef %1, ptr noundef %2, ptr readnone captures(none) %3) #0 {
  %5 = getelementptr inbounds nuw i8, ptr %1, i64 280
  %6 = load i32, ptr %5, align 8
  %.not = icmp eq i32 %6, 3
  br i1 %.not, label %7, label %.critedge51

7:                                                ; preds = %4
  %8 = getelementptr inbounds nuw i8, ptr %1, i64 232
  %9 = load i32, ptr %8, align 8
  %.not35 = icmp eq i32 %9, 2
  br i1 %.not35, label %10, label %.critedge51

10:                                               ; preds = %7
  %11 = getelementptr inbounds nuw i8, ptr %1, i64 236
  %12 = load i32, ptr %11, align 4
  %.not36 = icmp eq i32 %12, 4
  br i1 %.not36, label %13, label %.critedge51

13:                                               ; preds = %10
  %14 = tail call i32 @tvb_reported_length_remaining(ptr noundef %0, i32 noundef 0)
  %15 = icmp slt i32 %14, 8
  br i1 %15, label %.critedge51, label %16

16:                                               ; preds = %13
  %17 = tail call zeroext i8 @tvb_get_uint8(ptr noundef %0, i32 noundef 0)
  %18 = and i8 %17, 15
  switch i8 %18, label %.critedge51 [
    i8 0, label %19
    i8 2, label %19
    i8 3, label %19
    i8 4, label %19
  ]

19:                                               ; preds = %16, %16, %16, %16
  %.not37 = icmp ult i8 %17, 16
  br i1 %.not37, label %20, label %.critedge51

20:                                               ; preds = %19
  %21 = tail call zeroext i8 @tvb_get_uint8(ptr noundef %0, i32 noundef 1)
  %.not38 = icmp eq i8 %21, 0
  br i1 %.not38, label %22, label %.critedge51

22:                                               ; preds = %20
  %23 = load i8, ptr @lbtrm_use_tag, align 1, !range !10, !noundef !11
  %24 = trunc nuw i8 %23 to i1
  br i1 %24, label %25, label %27

25:                                               ; preds = %22
  %26 = tail call fastcc ptr @lbtrm_tag_find(ptr noundef %1)
  %.not45.not = icmp eq ptr %26, null
  br i1 %.not45.not, label %.critedge51, label %.critedge

27:                                               ; preds = %22
  %28 = getelementptr inbounds nuw i8, ptr %1, i64 240
  %29 = load ptr, ptr %28, align 8
  %30 = load i8, ptr %29, align 1
  %31 = zext i8 %30 to i32
  %32 = shl nuw i32 %31, 24
  %33 = getelementptr i8, ptr %29, i64 1
  %34 = load i8, ptr %33, align 1
  %35 = zext i8 %34 to i32
  %36 = shl nuw nsw i32 %35, 16
  %37 = getelementptr i8, ptr %29, i64 2
  %38 = load i8, ptr %37, align 1
  %39 = zext i8 %38 to i32
  %40 = shl nuw nsw i32 %39, 8
  %41 = getelementptr i8, ptr %29, i64 3
  %42 = load i8, ptr %41, align 1
  %43 = zext i8 %42 to i32
  %44 = or disjoint i32 %36, %32
  %45 = or disjoint i32 %44, %43
  %46 = or disjoint i32 %45, %40
  %47 = and i32 %31, 240
  %48 = icmp eq i32 %47, 224
  br i1 %48, label %49, label %74

49:                                               ; preds = %27
  %50 = load i32, ptr @lbtrm_mc_address_low_host, align 4
  %.not41 = icmp ult i32 %46, %50
  %51 = load i32, ptr @lbtrm_mc_address_high_host, align 4
  %.not42 = icmp ugt i32 %46, %51
  %or.cond = select i1 %.not41, i1 true, i1 %.not42
  br i1 %or.cond, label %57, label %52

52:                                               ; preds = %49
  %53 = getelementptr inbounds nuw i8, ptr %1, i64 288
  %54 = load i32, ptr %53, align 8
  %55 = load i32, ptr @lbtrm_dest_port_low, align 4
  %.not43 = icmp ult i32 %54, %55
  %56 = load i32, ptr @lbtrm_dest_port_high, align 4
  %.not44 = icmp ugt i32 %54, %56
  %or.cond46 = select i1 %.not43, i1 true, i1 %.not44
  br i1 %or.cond46, label %.critedge51, label %.critedge

57:                                               ; preds = %49
  %58 = load i32, ptr @mim_incoming_mc_address_host, align 4
  %59 = icmp eq i32 %46, %58
  %60 = load i32, ptr @mim_outgoing_mc_address_host, align 4
  %61 = icmp eq i32 %46, %60
  %or.cond48 = select i1 %59, i1 true, i1 %61
  br i1 %or.cond48, label %62, label %.critedge51

62:                                               ; preds = %57
  br i1 %59, label %63, label %68

63:                                               ; preds = %62
  %64 = getelementptr inbounds nuw i8, ptr %1, i64 288
  %65 = load i32, ptr %64, align 8
  %66 = load i32, ptr @mim_incoming_dest_port, align 4
  %67 = icmp eq i32 %65, %66
  br i1 %67, label %.critedge, label %68

68:                                               ; preds = %63, %62
  br i1 %61, label %69, label %.critedge51

69:                                               ; preds = %68
  %70 = getelementptr inbounds nuw i8, ptr %1, i64 288
  %71 = load i32, ptr %70, align 8
  %72 = load i32, ptr @mim_outgoing_dest_port, align 4
  %73 = icmp eq i32 %71, %72
  br i1 %73, label %.critedge, label %.critedge51

74:                                               ; preds = %27
  %75 = getelementptr inbounds nuw i8, ptr %1, i64 288
  %76 = load i32, ptr %75, align 8
  %77 = load i32, ptr @lbtrm_src_port_low, align 4
  %.not39 = icmp ult i32 %76, %77
  %78 = load i32, ptr @lbtrm_src_port_high, align 4
  %.not40 = icmp ugt i32 %76, %78
  %or.cond49 = select i1 %.not39, i1 true, i1 %.not40
  br i1 %or.cond49, label %.critedge51, label %.critedge

.critedge:                                        ; preds = %52, %69, %63, %74, %25
  %79 = tail call i32 @dissect_lbtrm(ptr noundef %0, ptr noundef %1, ptr noundef %2, ptr poison)
  br label %.critedge51

.critedge51:                                      ; preds = %25, %57, %74, %68, %69, %52, %20, %19, %16, %13, %7, %10, %4, %.critedge
  %.031 = phi i1 [ true, %.critedge ], [ false, %4 ], [ false, %10 ], [ false, %7 ], [ false, %13 ], [ false, %16 ], [ false, %19 ], [ false, %20 ], [ false, %52 ], [ false, %69 ], [ false, %68 ], [ false, %74 ], [ false, %57 ], [ false, %25 ]
  ret i1 %.031
}